target datalayout = "e-m:e-p270:32:32-p271:32:32-p272:64:64-i64:64-i128:128-f80:128-n8:16:32:64-S128"
target triple = "x86_64-pc-linux-gnu"

%struct.UConverterStaticData = type { i32, [60 x i8], i32, i8, i8, i8, i8, [4 x i8], i8, i8, i8, i8, i8, [19 x i8] }
%struct.UConverterSharedData = type { i32, i32, ptr, ptr, i8, i8, ptr, i32, %struct.UConverterMBCSTable }
%struct.UConverterMBCSTable = type { i8, i8, i8, i32, ptr, ptr, ptr, ptr, ptr, ptr, [64 x i16], ptr, ptr, i32, i8, i8, i8, i16, i32, ptr, ptr, ptr, ptr }
%struct.UConverter = type { ptr, ptr, ptr, ptr, ptr, ptr, ptr, i32, i8, i8, i8, i8, i8, [7 x i8], i32, i32, i32, i32, i8, i8, i8, i8, i8, i8, i8, i8, [8 x i8], [32 x i8], [2 x i16], [2 x i16], [32 x i16], i32, [19 x i16], [31 x i8], i8, i8, i8, i32 }
%struct.UConverterLoadArgs = type { i32, i32, i8, i8, i16, i32, ptr, ptr, ptr }

@_UTF16v2Data_77 = constant %struct.UConverterSharedData { i32 296, i32 -1, ptr null, ptr @_ZL18_UTF16v2StaticData, i8 0, i8 0, ptr @_ZL12_UTF16v2Impl, i32 0, %struct.UConverterMBCSTable zeroinitializer }, align 8

; Function Attrs: mustprogress nounwind uwtable
define internal void @_ZL11_UTF16ResetP10UConverter21UConverterResetChoice(ptr noundef %0, i32 noundef %1) #1 {
  %3 = alloca ptr, align 8
  %4 = alloca i32, align 4
  store ptr %0, ptr %3, align 8, !tbaa !3
  store i32 %1, ptr %4, align 4, !tbaa !17
  %5 = load i32, ptr %4, align 4, !tbaa !17
  %6 = icmp sle i32 %5, 1
  br i1 %6, label %7, label %10

7:                                                ; preds = %2
  %8 = load ptr, ptr %3, align 8, !tbaa !3
  %9 = getelementptr inbounds nuw %struct.UConverter, ptr %8, i32 0, i32 15
  store i32 0, ptr %9, align 4, !tbaa !19
  br label %10

10:                                               ; preds = %7, %2
  %11 = load i32, ptr %4, align 4, !tbaa !17
  %12 = icmp ne i32 %11, 1
  br i1 %12, label %13, label %16

13:                                               ; preds = %10
  %14 = load ptr, ptr %3, align 8, !tbaa !3
  %15 = getelementptr inbounds nuw %struct.UConverter, ptr %14, i32 0, i32 16
  store i32 1, ptr %15, align 8, !tbaa !20
  br label %16

16:                                               ; preds = %13, %10
  ret void
}

; Function Attrs: mustprogress uwtable
define internal void @_ZL10_UTF16OpenP10UConverterP18UConverterLoadArgsP10UErrorCode(ptr noundef %0, ptr noundef %1, ptr noundef %2) #0 {
  %4 = alloca ptr, align 8
  %5 = alloca ptr, align 8
  %6 = alloca ptr, align 8
  store ptr %0, ptr %4, align 8, !tbaa !3
  store ptr %1, ptr %5, align 8, !tbaa !8
  store ptr %2, ptr %6, align 8, !tbaa !8
  %7 = load ptr, ptr %4, align 8, !tbaa !3
  %8 = getelementptr inbounds nuw %struct.UConverter, ptr %7, i32 0, i32 7
  %9 = load i32, ptr %8, align 8, !tbaa !9
  %10 = and i32 %9, 15
  %11 = icmp ule i32 %10, 2
  br i1 %11, label %12, label %36

12:                                               ; preds = %3
  %13 = load ptr, ptr %4, align 8, !tbaa !3
  %14 = getelementptr inbounds nuw %struct.UConverter, ptr %13, i32 0, i32 7
  %15 = load i32, ptr %14, align 8, !tbaa !9
  %16 = and i32 %15, 15
  %17 = icmp eq i32 %16, 2
  br i1 %17, label %18, label %34

18:                                               ; preds = %12
  %19 = load ptr, ptr %5, align 8, !tbaa !8
  %20 = getelementptr inbounds nuw %struct.UConverterLoadArgs, ptr %19, i32 0, i32 2
  %21 = load i8, ptr %20, align 8, !tbaa !66
  %22 = icmp ne i8 %21, 0
  br i1 %22, label %34, label %23

23:                                               ; preds = %18
  %24 = load ptr, ptr %4, align 8, !tbaa !3
  %25 = getelementptr inbounds nuw %struct.UConverter, ptr %24, i32 0, i32 6
  store ptr @_UTF16v2Data_77, ptr %25, align 8, !tbaa !59
  br label %26

26:                                               ; preds = %23
  %27 = load ptr, ptr %4, align 8, !tbaa !3
  %28 = getelementptr inbounds nuw %struct.UConverter, ptr %27, i32 0, i32 5
  %29 = load ptr, ptr %28, align 8, !tbaa !68
  %30 = load ptr, ptr getelementptr inbounds nuw (%struct.UConverterSharedData, ptr @_UTF16v2Data_77, i32 0, i32 3), align 8, !tbaa !69
  %31 = getelementptr inbounds nuw %struct.UConverterStaticData, ptr %30, i32 0, i32 7
  %32 = getelementptr inbounds [4 x i8], ptr %31, i64 0, i64 0
  call void @llvm.memcpy.p0.p0.i64(ptr align 1 %29, ptr align 4 %32, i64 4, i1 false)
  br label %33

33:                                               ; preds = %26
  br label %34

34:                                               ; preds = %33, %18, %12
  %35 = load ptr, ptr %4, align 8, !tbaa !3
  call void @_ZL11_UTF16ResetP10UConverter21UConverterResetChoice(ptr noundef %35, i32 noundef 0)
  br label %38

36:                                               ; preds = %3
  %37 = load ptr, ptr %6, align 8, !tbaa !8
  store i32 1, ptr %37, align 4, !tbaa !15
  br label %38

38:                                               ; preds = %36, %34
  ret void
}