; Function Attrs: mustprogress nofree norecurse nosync nounwind willreturn memory(write, argmem: readwrite, inaccessiblemem: none) uwtable
define internal void @_ZL10_UTF16OpenP10UConverterP18UConverterLoadArgsP10UErrorCode(ptr noundef captures(none) %0, ptr noundef readonly captures(none) %1, ptr noundef writeonly captures(none) %2) #7 {
  %4 = getelementptr inbounds nuw i8, ptr %0, i64 56
  %5 = load i32, ptr %4, align 8, !tbaa !3
  %6 = and i32 %5, 15
  %7 = icmp samesign ult i32 %6, 3
  br i1 %7, label %8, label %20

8:                                                ; preds = %3
  %9 = icmp eq i32 %6, 2
  br i1 %9, label %10, label %17

10:                                               ; preds = %8
  %11 = getelementptr inbounds nuw i8, ptr %1, i64 8
  %12 = load i8, ptr %11, align 8, !tbaa !61
  %.not = icmp eq i8 %12, 0
  br i1 %.not, label %13, label %17

13:                                               ; preds = %10
  %14 = getelementptr inbounds nuw i8, ptr %0, i64 48
  store ptr @_UTF16v2Data_77, ptr %14, align 8, !tbaa !51
  %15 = getelementptr inbounds nuw i8, ptr %0, i64 40
  %16 = load ptr, ptr %15, align 8, !tbaa !63
  store i32 65023, ptr %16, align 1
  br label %17

17:                                               ; preds = %13, %10, %8
  %18 = getelementptr inbounds nuw i8, ptr %0, i64 76
  store i32 0, ptr %18, align 4, !tbaa !12
  %19 = getelementptr inbounds nuw i8, ptr %0, i64 80
  store i32 1, ptr %19, align 8, !tbaa !13
  br label %21

20:                                               ; preds = %3
  store i32 1, ptr %2, align 4, !tbaa !14
  br label %21

21:                                               ; preds = %20, %17
  ret void
}